; ModuleID = '58/38.c'
source_filename = "58/38.c"
target datalayout = "e-m:e-p270:32:32-p271:32:32-p272:64:64-i64:64-f80:128-n8:16:32:64-S128"
target triple = "x86_64-pc-linux-gnu"

@.str = private unnamed_addr constant [3 x i8] c"%d\00", align 1
@.str.1 = private unnamed_addr constant [3 x i8] c"1\0A\00", align 1
@.str.2 = private unnamed_addr constant [3 x i8] c"0\0A\00", align 1

; Function Attrs: noinline nounwind uwtable
define dso_local void @main() #0 {
  %1 = alloca i32, align 4
  %2 = alloca i32, align 4
  %3 = alloca i32, align 4
  %4 = alloca i32, align 4
  %5 = alloca [100 x i8*], align 16
  %6 = alloca [100 x [82 x i8]], align 16
  %7 = call i32 (i8*, ...) @__isoc99_scanf(i8* getelementptr inbounds ([3 x i8], [3 x i8]* @.str, i64 0, i64 0), i32* %1)
  %8 = call i32 @getchar()
  store i32 0, i32* %2, align 4
  br label %9

9:                                                ; preds = %166, %0
  %10 = load i32, i32* %2, align 4
  %11 = load i32, i32* %1, align 4
  %12 = icmp slt i32 %10, %11
  br i1 %12, label %13, label %169

13:                                               ; preds = %9
  %14 = load i32, i32* %2, align 4
  %15 = sext i32 %14 to i64
  %16 = getelementptr inbounds [100 x [82 x i8]], [100 x [82 x i8]]* %6, i64 0, i64 %15
  %17 = getelementptr inbounds [82 x i8], [82 x i8]* %16, i64 0, i64 0
  %18 = call i32 (i8*, ...) bitcast (i32 (...)* @gets to i32 (i8*, ...)*)(i8* %17)
  store i32 0, i32* %4, align 4
  %19 = load i32, i32* %2, align 4
  %20 = sext i32 %19 to i64
  %21 = getelementptr inbounds [100 x [82 x i8]], [100 x [82 x i8]]* %6, i64 0, i64 %20
  %22 = getelementptr inbounds [82 x i8], [82 x i8]* %21, i64 0, i64 0
  %23 = load i32, i32* %2, align 4
  %24 = sext i32 %23 to i64
  %25 = getelementptr inbounds [100 x i8*], [100 x i8*]* %5, i64 0, i64 %24
  store i8* %22, i8** %25, align 8
  %26 = load i32, i32* %2, align 4
  %27 = sext i32 %26 to i64
  %28 = getelementptr inbounds [100 x i8*], [100 x i8*]* %5, i64 0, i64 %27
  %29 = load i8*, i8** %28, align 8
  %30 = load i8, i8* %29, align 1
  %31 = sext i8 %30 to i32
  %32 = icmp sgt i32 %31, 64
  br i1 %32, label %33, label %41

33:                                               ; preds = %13
  %34 = load i32, i32* %2, align 4
  %35 = sext i32 %34 to i64
  %36 = getelementptr inbounds [100 x i8*], [100 x i8*]* %5, i64 0, i64 %35
  %37 = load i8*, i8** %36, align 8
  %38 = load i8, i8* %37, align 1
  %39 = sext i8 %38 to i32
  %40 = icmp slt i32 %39, 91
  br i1 %40, label %65, label %41

41:                                               ; preds = %33, %13
  %42 = load i32, i32* %2, align 4
  %43 = sext i32 %42 to i64
  %44 = getelementptr inbounds [100 x i8*], [100 x i8*]* %5, i64 0, i64 %43
  %45 = load i8*, i8** %44, align 8
  %46 = load i8, i8* %45, align 1
  %47 = sext i8 %46 to i32
  %48 = icmp sgt i32 %47, 96
  br i1 %48, label %49, label %57

49:                                               ; preds = %41
  %50 = load i32, i32* %2, align 4
  %51 = sext i32 %50 to i64
  %52 = getelementptr inbounds [100 x i8*], [100 x i8*]* %5, i64 0, i64 %51
  %53 = load i8*, i8** %52, align 8
  %54 = load i8, i8* %53, align 1
  %55 = sext i8 %54 to i32
  %56 = icmp slt i32 %55, 123
  br i1 %56, label %65, label %57

57:                                               ; preds = %49, %41
  %58 = load i32, i32* %2, align 4
  %59 = sext i32 %58 to i64
  %60 = getelementptr inbounds [100 x i8*], [100 x i8*]* %5, i64 0, i64 %59
  %61 = load i8*, i8** %60, align 8
  %62 = load i8, i8* %61, align 1
  %63 = sext i8 %62 to i32
  %64 = icmp eq i32 %63, 95
  br i1 %64, label %65, label %68

65:                                               ; preds = %57, %49, %33
  %66 = load i32, i32* %4, align 4
  %67 = add nsw i32 %66, 0
  store i32 %67, i32* %4, align 4
  br label %71

68:                                               ; preds = %57
  %69 = load i32, i32* %4, align 4
  %70 = add nsw i32 %69, 1
  store i32 %70, i32* %4, align 4
  br label %71

71:                                               ; preds = %68, %65
  %72 = load i32, i32* %2, align 4
  %73 = sext i32 %72 to i64
  %74 = getelementptr inbounds [100 x i8*], [100 x i8*]* %5, i64 0, i64 %73
  %75 = load i8*, i8** %74, align 8
  %76 = getelementptr inbounds i8, i8* %75, i32 1
  store i8* %76, i8** %74, align 8
  br label %77

77:                                               ; preds = %148, %71
  %78 = load i32, i32* %2, align 4
  %79 = sext i32 %78 to i64
  %80 = getelementptr inbounds [100 x i8*], [100 x i8*]* %5, i64 0, i64 %79
  %81 = load i8*, i8** %80, align 8
  %82 = load i8, i8* %81, align 1
  %83 = sext i8 %82 to i32
  %84 = icmp ne i32 %83, 0
  br i1 %84, label %85, label %154

85:                                               ; preds = %77
  %86 = load i32, i32* %2, align 4
  %87 = sext i32 %86 to i64
  %88 = getelementptr inbounds [100 x i8*], [100 x i8*]* %5, i64 0, i64 %87
  %89 = load i8*, i8** %88, align 8
  %90 = load i8, i8* %89, align 1
  %91 = sext i8 %90 to i32
  %92 = icmp sgt i32 %91, 64
  br i1 %92, label %93, label %101

93:                                               ; preds = %85
  %94 = load i32, i32* %2, align 4
  %95 = sext i32 %94 to i64
  %96 = getelementptr inbounds [100 x i8*], [100 x i8*]* %5, i64 0, i64 %95
  %97 = load i8*, i8** %96, align 8
  %98 = load i8, i8* %97, align 1
  %99 = sext i8 %98 to i32
  %100 = icmp slt i32 %99, 91
  br i1 %100, label %141, label %101

101:                                              ; preds = %93, %85
  %102 = load i32, i32* %2, align 4
  %103 = sext i32 %102 to i64
  %104 = getelementptr inbounds [100 x i8*], [100 x i8*]* %5, i64 0, i64 %103
  %105 = load i8*, i8** %104, align 8
  %106 = load i8, i8* %105, align 1
  %107 = sext i8 %106 to i32
  %108 = icmp sgt i32 %107, 96
  br i1 %108, label %109, label %117

109:                                              ; preds = %101
  %110 = load i32, i32* %2, align 4
  %111 = sext i32 %110 to i64
  %112 = getelementptr inbounds [100 x i8*], [100 x i8*]* %5, i64 0, i64 %111
  %113 = load i8*, i8** %112, align 8
  %114 = load i8, i8* %113, align 1
  %115 = sext i8 %114 to i32
  %116 = icmp slt i32 %115, 123
  br i1 %116, label %141, label %117

117:                                              ; preds = %109, %101
  %118 = load i32, i32* %2, align 4
  %119 = sext i32 %118 to i64
  %120 = getelementptr inbounds [100 x i8*], [100 x i8*]* %5, i64 0, i64 %119
  %121 = load i8*, i8** %120, align 8
  %122 = load i8, i8* %121, align 1
  %123 = sext i8 %122 to i32
  %124 = icmp eq i32 %123, 95
  br i1 %124, label %141, label %125

125:                                              ; preds = %117
  %126 = load i32, i32* %2, align 4
  %127 = sext i32 %126 to i64
  %128 = getelementptr inbounds [100 x i8*], [100 x i8*]* %5, i64 0, i64 %127
  %129 = load i8*, i8** %128, align 8
  %130 = load i8, i8* %129, align 1
  %131 = sext i8 %130 to i32
  %132 = icmp sgt i32 %131, 47
  br i1 %132, label %133, label %144

133:                                              ; preds = %125
  %134 = load i32, i32* %2, align 4
  %135 = sext i32 %134 to i64
  %136 = getelementptr inbounds [100 x i8*], [100 x i8*]* %5, i64 0, i64 %135
  %137 = load i8*, i8** %136, align 8
  %138 = load i8, i8* %137, align 1
  %139 = sext i8 %138 to i32
  %140 = icmp slt i32 %139, 58
  br i1 %140, label %141, label %144

141:                                              ; preds = %133, %117, %109, %93
  %142 = load i32, i32* %4, align 4
  %143 = add nsw i32 %142, 0
  store i32 %143, i32* %4, align 4
  br label %147

144:                                              ; preds = %133, %125
  %145 = load i32, i32* %4, align 4
  %146 = add nsw i32 %145, 1
  store i32 %146, i32* %4, align 4
  br label %147

147:                                              ; preds = %144, %141
  br label %148

148:                                              ; preds = %147
  %149 = load i32, i32* %2, align 4
  %150 = sext i32 %149 to i64
  %151 = getelementptr inbounds [100 x i8*], [100 x i8*]* %5, i64 0, i64 %150
  %152 = load i8*, i8** %151, align 8
  %153 = getelementptr inbounds i8, i8* %152, i32 1
  store i8* %153, i8** %151, align 8
  br label %77

154:                                              ; preds = %77
  %155 = load i32, i32* %4, align 4
  %156 = icmp eq i32 %155, 0
  br i1 %156, label %157, label %159

157:                                              ; preds = %154
  %158 = call i32 (i8*, ...) @printf(i8* getelementptr inbounds ([3 x i8], [3 x i8]* @.str.1, i64 0, i64 0))
  br label %165

159:                                              ; preds = %154
  %160 = load i32, i32* %4, align 4
  %161 = icmp sgt i32 %160, 0
  br i1 %161, label %162, label %164

162:                                              ; preds = %159
  %163 = call i32 (i8*, ...) @printf(i8* getelementptr inbounds ([3 x i8], [3 x i8]* @.str.2, i64 0, i64 0))
  br label %164

164:                                              ; preds = %162, %159
  br label %165

165:                                              ; preds = %164, %157
  br label %166

166:                                              ; preds = %165
  %167 = load i32, i32* %2, align 4
  %168 = add nsw i32 %167, 1
  store i32 %168, i32* %2, align 4
  br label %9

169:                                              ; preds = %9
  ret void
}

declare dso_local i32 @__isoc99_scanf(i8*, ...) #1

declare dso_local i32 @getchar() #1

declare dso_local i32 @gets(...) #1

declare dso_local i32 @printf(i8*, ...) #1


!llvm.module.flags = !{!0}
!llvm.ident = !{!1}

!0 = !{i32 1, !"wchar_size", i32 4}
!1 = !{!"clang version 10.0.0-4ubuntu1 "}
